; Function Attrs: nounwind uwtable
define internal noundef i32 @aria_256_ecb_cipher(ptr noundef %0, ptr noundef %1, ptr noundef %2, i64 noundef %3) #1 {
  %5 = tail call ptr @EVP_CIPHER_CTX_get0_cipher(ptr noundef %0) #6
  %6 = getelementptr inbounds nuw i8, ptr %5, i64 4
  %7 = load i32, ptr %6, align 4, !tbaa !11
  %8 = sext i32 %7 to i64
  %9 = icmp ult i64 %3, %8
  br i1 %9, label %.loopexit, label %10

10:                                               ; preds = %4
  %11 = sub nuw i64 %3, %8
  br label %12

12:                                               ; preds = %10, %12
  %.01517 = phi i64 [ 0, %10 ], [ %17, %12 ]
  %13 = getelementptr inbounds nuw i8, ptr %2, i64 %.01517
  %14 = getelementptr inbounds nuw i8, ptr %1, i64 %.01517
  %15 = tail call ptr @EVP_CIPHER_CTX_get_cipher_data(ptr noundef %0) #6
  %16 = tail call i32 @EVP_CIPHER_CTX_is_encrypting(ptr noundef %0) #6
  tail call void @ossl_aria_encrypt(ptr noundef %13, ptr noundef %14, ptr noundef %15) #6
  %17 = add i64 %.01517, %8
  %.not = icmp ugt i64 %17, %11
  br i1 %.not, label %.loopexit, label %12, !llvm.loop !26

.loopexit:                                        ; preds = %12, %4
  ret i32 1
}